target datalayout = "e-m:e-p270:32:32-p271:32:32-p272:64:64-i64:64-i128:128-f80:128-n8:16:32:64-S128"
target triple = "x86_64-pc-linux-gnu"

%"class.doctest::String" = type { %union.anon.7 }
%union.anon.7 = type { %"struct.doctest::String::view", [8 x i8] }
%"struct.doctest::String::view" = type { ptr, i32, i32 }
%"struct.doctest::ContextOptions" = type <{ ptr, %"class.doctest::String", ptr, %"class.doctest::String", %"class.doctest::String", i32, i32, i32, i32, i32, i8, i8, i8, i8, i8, i8, i8, i8, i8, i8, i8, i8, i8, i8, i8, i8, i8, i8, i8, i8, i8, i8, i8, i8, i8, i8, i8, i8 }>
%"struct.doctest::SubcaseSignature" = type <{ %"class.doctest::String", ptr, i32, [4 x i8] }>
%"struct.doctest::TestRunStats" = type { i32, i32, i32, i32, i32, i32 }
%"struct.doctest::detail::ContextState" = type <{ %"struct.doctest::ContextOptions.base", i8, %"struct.doctest::TestRunStats", %"struct.doctest::CurrentTestCaseStats", %"class.doctest::detail::MultiLaneAtomic", %"class.doctest::detail::MultiLaneAtomic", %"class.std::vector.9", %"class.std::vector.14", ptr, %"struct.doctest::detail::Timer", %"class.std::vector.19", i8, [7 x i8], %"class.std::vector.24", %"class.std::vector.24", %"class.std::unordered_set", i64, %"struct.std::atomic.34", [7 x i8] }>
%"struct.doctest::ContextOptions.base" = type <{ ptr, %"class.doctest::String", ptr, %"class.doctest::String", %"class.doctest::String", i32, i32, i32, i32, i32, i8, i8, i8, i8, i8, i8, i8, i8, i8, i8, i8, i8, i8, i8, i8, i8, i8, i8, i8, i8, i8, i8, i8, i8, i8, i8, i8 }>
%"struct.doctest::CurrentTestCaseStats" = type { i32, i32, double, i32, i8 }
%"class.doctest::detail::MultiLaneAtomic" = type { [32 x %"struct.doctest::detail::MultiLaneAtomic<int>::CacheLineAlignedAtomic"] }
%"struct.doctest::detail::MultiLaneAtomic<int>::CacheLineAlignedAtomic" = type { %"struct.std::atomic", [60 x i8] }
%"struct.std::atomic" = type { %"struct.std::__atomic_base" }
%"struct.std::__atomic_base" = type { i32 }
%"class.std::vector.9" = type { %"struct.std::_Vector_base.10" }
%"struct.std::_Vector_base.10" = type { %"struct.std::_Vector_base<std::vector<doctest::String>, std::allocator<std::vector<doctest::String>>>::_Vector_impl" }
%"struct.std::_Vector_base<std::vector<doctest::String>, std::allocator<std::vector<doctest::String>>>::_Vector_impl" = type { %"struct.std::_Vector_base<std::vector<doctest::String>, std::allocator<std::vector<doctest::String>>>::_Vector_impl_data" }
%"struct.std::_Vector_base<std::vector<doctest::String>, std::allocator<std::vector<doctest::String>>>::_Vector_impl_data" = type { ptr, ptr, ptr }
%"class.std::vector.14" = type { %"struct.std::_Vector_base.15" }
%"struct.std::_Vector_base.15" = type { %"struct.std::_Vector_base<doctest::IReporter *, std::allocator<doctest::IReporter *>>::_Vector_impl" }
%"struct.std::_Vector_base<doctest::IReporter *, std::allocator<doctest::IReporter *>>::_Vector_impl" = type { %"struct.std::_Vector_base<doctest::IReporter *, std::allocator<doctest::IReporter *>>::_Vector_impl_data" }
%"struct.std::_Vector_base<doctest::IReporter *, std::allocator<doctest::IReporter *>>::_Vector_impl_data" = type { ptr, ptr, ptr }
%"struct.doctest::detail::Timer" = type { i64 }
%"class.std::vector.19" = type { %"struct.std::_Vector_base.20" }
%"struct.std::_Vector_base.20" = type { %"struct.std::_Vector_base<doctest::String, std::allocator<doctest::String>>::_Vector_impl" }
%"struct.std::_Vector_base<doctest::String, std::allocator<doctest::String>>::_Vector_impl" = type { %"struct.std::_Vector_base<doctest::String, std::allocator<doctest::String>>::_Vector_impl_data" }
%"struct.std::_Vector_base<doctest::String, std::allocator<doctest::String>>::_Vector_impl_data" = type { ptr, ptr, ptr }
%"class.std::vector.24" = type { %"struct.std::_Vector_base.25" }
%"struct.std::_Vector_base.25" = type { %"struct.std::_Vector_base<doctest::SubcaseSignature, std::allocator<doctest::SubcaseSignature>>::_Vector_impl" }
%"struct.std::_Vector_base<doctest::SubcaseSignature, std::allocator<doctest::SubcaseSignature>>::_Vector_impl" = type { %"struct.std::_Vector_base<doctest::SubcaseSignature, std::allocator<doctest::SubcaseSignature>>::_Vector_impl_data" }
%"struct.std::_Vector_base<doctest::SubcaseSignature, std::allocator<doctest::SubcaseSignature>>::_Vector_impl_data" = type { ptr, ptr, ptr }
%"class.std::unordered_set" = type { %"class.std::_Hashtable" }
%"class.std::_Hashtable" = type { ptr, i64, %"struct.std::__detail::_Hash_node_base", i64, %"struct.std::__detail::_Prime_rehash_policy", ptr }
%"struct.std::__detail::_Hash_node_base" = type { ptr }
%"struct.std::__detail::_Prime_rehash_policy" = type { float, i64 }
%"struct.std::atomic.34" = type { %"struct.std::__atomic_base.35" }
%"struct.std::__atomic_base.35" = type { i8 }
%"struct.doctest::detail::Subcase" = type { %"struct.doctest::SubcaseSignature", i8, [7 x i8] }

@_ZN7doctest6detail4g_csE = dso_local global ptr null, align 8

; Function Attrs: mustprogress nounwind uwtable
define linkonce_odr dso_local noundef zeroext i1 @_ZNK7doctest6String9isOnStackEv(ptr noundef nonnull align 8 dereferenceable(24) %0) #1 comdat align 2 {
  %2 = alloca ptr, align 8
  store ptr %0, ptr %2, align 8, !tbaa !59
  %3 = load ptr, ptr %2, align 8
  %4 = getelementptr inbounds nuw %"class.doctest::String", ptr %3, i32 0, i32 0
  %5 = getelementptr inbounds nuw [24 x i8], ptr %4, i64 0, i64 23
  %6 = load i8, ptr %5, align 1, !tbaa !55
  %7 = sext i8 %6 to i32
  %8 = and i32 %7, 128
  %9 = icmp eq i32 %8, 0
  ret i1 %9
}

; Function Attrs: mustprogress nounwind uwtable
define linkonce_odr dso_local noundef nonnull align 8 dereferenceable(24) ptr @_ZNSt6vectorIS_IN7doctest6StringESaIS1_EESaIS3_EEixEm(ptr noundef nonnull align 8 dereferenceable(24) %0, i64 noundef %1) #1 comdat align 2 {
  %3 = alloca ptr, align 8
  %4 = alloca i64, align 8
  store ptr %0, ptr %3, align 8, !tbaa !128
  store i64 %1, ptr %4, align 8, !tbaa !53
  %5 = load ptr, ptr %3, align 8
  %6 = getelementptr inbounds nuw %"struct.std::_Vector_base.10", ptr %5, i32 0, i32 0
  %7 = getelementptr inbounds nuw %"struct.std::_Vector_base<std::vector<doctest::String>, std::allocator<std::vector<doctest::String>>>::_Vector_impl_data", ptr %6, i32 0, i32 0
  %8 = load ptr, ptr %7, align 8, !tbaa !130
  %9 = load i64, ptr %4, align 8, !tbaa !53
  %10 = getelementptr inbounds nuw %"class.std::vector.19", ptr %8, i64 %9
  ret ptr %10
}

; Function Attrs: mustprogress nounwind uwtable
define linkonce_odr dso_local noundef ptr @_ZN7doctest6String5c_strEv(ptr noundef nonnull align 8 dereferenceable(24) %0) #1 comdat align 2 {
  %2 = alloca ptr, align 8
  %3 = alloca ptr, align 8
  store ptr %0, ptr %3, align 8, !tbaa !59
  %4 = load ptr, ptr %3, align 8
  %5 = call noundef zeroext i1 @_ZNK7doctest6String9isOnStackEv(ptr noundef nonnull align 8 dereferenceable(24) %4) #7
  br i1 %5, label %6, label %9

6:                                                ; preds = %1
  %7 = getelementptr inbounds nuw %"class.doctest::String", ptr %4, i32 0, i32 0
  %8 = getelementptr inbounds [24 x i8], ptr %7, i64 0, i64 0
  store ptr %8, ptr %2, align 8
  br label %13

9:                                                ; preds = %1
  %10 = getelementptr inbounds nuw %"class.doctest::String", ptr %4, i32 0, i32 0
  %11 = getelementptr inbounds nuw %"struct.doctest::String::view", ptr %10, i32 0, i32 0
  %12 = load ptr, ptr %11, align 8, !tbaa !55
  store ptr %12, ptr %2, align 8
  br label %13

13:                                               ; preds = %9, %6
  %14 = load ptr, ptr %2, align 8
  ret ptr %14
}

; Function Attrs: mustprogress nounwind uwtable
define linkonce_odr dso_local noundef i64 @_ZNKSt6vectorIN7doctest16SubcaseSignatureESaIS1_EE4sizeEv(ptr noundef nonnull align 8 dereferenceable(24) %0) #1 comdat align 2 {
  %2 = alloca ptr, align 8
  store ptr %0, ptr %2, align 8, !tbaa !121
  %3 = load ptr, ptr %2, align 8
  %4 = getelementptr inbounds nuw %"struct.std::_Vector_base.25", ptr %3, i32 0, i32 0
  %5 = getelementptr inbounds nuw %"struct.std::_Vector_base<doctest::SubcaseSignature, std::allocator<doctest::SubcaseSignature>>::_Vector_impl_data", ptr %4, i32 0, i32 1
  %6 = load ptr, ptr %5, align 8, !tbaa !123
  %7 = getelementptr inbounds nuw %"struct.std::_Vector_base.25", ptr %3, i32 0, i32 0
  %8 = getelementptr inbounds nuw %"struct.std::_Vector_base<doctest::SubcaseSignature, std::allocator<doctest::SubcaseSignature>>::_Vector_impl_data", ptr %7, i32 0, i32 0
  %9 = load ptr, ptr %8, align 8, !tbaa !125
  %10 = ptrtoint ptr %6 to i64
  %11 = ptrtoint ptr %9 to i64
  %12 = sub i64 %10, %11
  %13 = sdiv exact i64 %12, 40
  ret i64 %13
}

; Function Attrs: mustprogress uwtable
define dso_local noundef zeroext i1 @_ZN7doctest6detail7Subcase12checkFiltersEv(ptr noundef nonnull align 8 dereferenceable(41) %0) #8 align 2 {
  %2 = alloca i1, align 1
  %3 = alloca ptr, align 8
  store ptr %0, ptr %3, align 8, !tbaa !117
  %4 = load ptr, ptr %3, align 8
  %5 = load ptr, ptr @_ZN7doctest6detail4g_csE, align 8, !tbaa !84
  %6 = getelementptr inbounds nuw %"struct.doctest::detail::ContextState", ptr %5, i32 0, i32 13
  %7 = call noundef i64 @_ZNKSt6vectorIN7doctest16SubcaseSignatureESaIS1_EE4sizeEv(ptr noundef nonnull align 8 dereferenceable(24) %6) #7
  %8 = load ptr, ptr @_ZN7doctest6detail4g_csE, align 8, !tbaa !84
  %9 = getelementptr inbounds nuw %"struct.doctest::ContextOptions", ptr %8, i32 0, i32 9
  %10 = load i32, ptr %9, align 8, !tbaa !119
  %11 = sext i32 %10 to i64
  %12 = icmp ult i64 %7, %11
  br i1 %12, label %13, label %40

13:                                               ; preds = %1
  %14 = getelementptr inbounds nuw %"struct.doctest::detail::Subcase", ptr %4, i32 0, i32 0
  %15 = getelementptr inbounds nuw %"struct.doctest::SubcaseSignature", ptr %14, i32 0, i32 0
  %16 = call noundef ptr @_ZN7doctest6String5c_strEv(ptr noundef nonnull align 8 dereferenceable(24) %15)
  %17 = load ptr, ptr @_ZN7doctest6detail4g_csE, align 8, !tbaa !84
  %18 = getelementptr inbounds nuw %"struct.doctest::detail::ContextState", ptr %17, i32 0, i32 6
  %19 = call noundef nonnull align 8 dereferenceable(24) ptr @_ZNSt6vectorIS_IN7doctest6StringESaIS1_EESaIS3_EEixEm(ptr noundef nonnull align 8 dereferenceable(24) %18, i64 noundef 6) #7
  %20 = load ptr, ptr @_ZN7doctest6detail4g_csE, align 8, !tbaa !84
  %21 = getelementptr inbounds nuw %"struct.doctest::ContextOptions", ptr %20, i32 0, i32 11
  %22 = load i8, ptr %21, align 1, !tbaa !120, !range !36, !noundef !37
  %23 = trunc i8 %22 to i1
  %24 = call noundef zeroext i1 @_ZN7doctest12_GLOBAL__N_110matchesAnyEPKcRKSt6vectorINS_6StringESaIS4_EEbb(ptr noundef %16, ptr noundef nonnull align 8 dereferenceable(24) %19, i1 noundef zeroext true, i1 noundef zeroext %23)
  br i1 %24, label %26, label %25

25:                                               ; preds = %13
  store i1 true, ptr %2, align 1
  br label %41

26:                                               ; preds = %13
  %27 = getelementptr inbounds nuw %"struct.doctest::detail::Subcase", ptr %4, i32 0, i32 0
  %28 = getelementptr inbounds nuw %"struct.doctest::SubcaseSignature", ptr %27, i32 0, i32 0
  %29 = call noundef ptr @_ZN7doctest6String5c_strEv(ptr noundef nonnull align 8 dereferenceable(24) %28)
  %30 = load ptr, ptr @_ZN7doctest6detail4g_csE, align 8, !tbaa !84
  %31 = getelementptr inbounds nuw %"struct.doctest::detail::ContextState", ptr %30, i32 0, i32 6
  %32 = call noundef nonnull align 8 dereferenceable(24) ptr @_ZNSt6vectorIS_IN7doctest6StringESaIS1_EESaIS3_EEixEm(ptr noundef nonnull align 8 dereferenceable(24) %31, i64 noundef 7) #7
  %33 = load ptr, ptr @_ZN7doctest6detail4g_csE, align 8, !tbaa !84
  %34 = getelementptr inbounds nuw %"struct.doctest::ContextOptions", ptr %33, i32 0, i32 11
  %35 = load i8, ptr %34, align 1, !tbaa !120, !range !36, !noundef !37
  %36 = trunc i8 %35 to i1
  %37 = call noundef zeroext i1 @_ZN7doctest12_GLOBAL__N_110matchesAnyEPKcRKSt6vectorINS_6StringESaIS4_EEbb(ptr noundef %29, ptr noundef nonnull align 8 dereferenceable(24) %32, i1 noundef zeroext false, i1 noundef zeroext %36)
  br i1 %37, label %38, label %39

38:                                               ; preds = %26
  store i1 true, ptr %2, align 1
  br label %41

39:                                               ; preds = %26
  br label %40

40:                                               ; preds = %39, %1
  store i1 false, ptr %2, align 1
  br label %41

41:                                               ; preds = %40, %38, %25
  %42 = load i1, ptr %2, align 1
  ret i1 %42
}