; Function Attrs: mustprogress nofree nounwind willreturn memory(read) uwtable
define dso_local noundef zeroext i1 @_ZN7doctest6detail7Subcase12checkFiltersEv(ptr noundef nonnull readonly align 8 captures(none) dereferenceable(41) %0) local_unnamed_addr #20 align 2 {
  %2 = load ptr, ptr @_ZN7doctest6detail4g_csE, align 8, !tbaa !73
  %3 = getelementptr inbounds nuw i8, ptr %2, i64 4376
  %4 = getelementptr inbounds nuw i8, ptr %2, i64 4384
  %5 = load ptr, ptr %4, align 8, !tbaa !133
  %6 = load ptr, ptr %3, align 8, !tbaa !136
  %7 = ptrtoint ptr %5 to i64
  %8 = ptrtoint ptr %6 to i64
  %9 = sub i64 %7, %8
  %10 = sdiv exact i64 %9, 40
  %11 = getelementptr inbounds nuw i8, ptr %2, i64 104
  %12 = load i32, ptr %11, align 8, !tbaa !137
  %13 = sext i32 %12 to i64
  %14 = icmp ult i64 %10, %13
  br i1 %14, label %15, label %32

15:                                               ; preds = %1
  %16 = getelementptr inbounds nuw i8, ptr %0, i64 23
  %17 = load i8, ptr %16, align 1, !tbaa !38
  %18 = load ptr, ptr %0, align 8
  %19 = icmp slt i8 %17, 0
  %.0.i = select i1 %19, ptr %18, ptr %0
  %20 = getelementptr inbounds nuw i8, ptr %2, i64 4280
  %21 = load ptr, ptr %20, align 8, !tbaa !138
  %22 = getelementptr inbounds nuw i8, ptr %21, i64 144
  %23 = getelementptr inbounds nuw i8, ptr %2, i64 109
  %24 = load i8, ptr %23, align 1, !tbaa !141, !range !22, !noundef !23
  %25 = trunc nuw i8 %24 to i1
  %.val = load ptr, ptr %22, align 8, !tbaa !142
  %26 = getelementptr i8, ptr %21, i64 152
  %.val2 = load ptr, ptr %26, align 8, !tbaa !142
  %27 = tail call fastcc noundef zeroext i1 @_ZN7doctest12_GLOBAL__N_110matchesAnyEPKcRKSt6vectorINS_6StringESaIS4_EEbb(ptr noundef %.0.i, ptr %.val, ptr %.val2, i1 noundef zeroext true, i1 noundef zeroext %25)
  br i1 %27, label %28, label %33

28:                                               ; preds = %15
  %29 = getelementptr inbounds nuw i8, ptr %21, i64 168
  %.val3 = load ptr, ptr %29, align 8, !tbaa !142
  %30 = getelementptr i8, ptr %21, i64 176
  %.val4 = load ptr, ptr %30, align 8, !tbaa !142
  %31 = tail call fastcc noundef zeroext i1 @_ZN7doctest12_GLOBAL__N_110matchesAnyEPKcRKSt6vectorINS_6StringESaIS4_EEbb(ptr noundef %.0.i, ptr %.val3, ptr %.val4, i1 noundef zeroext false, i1 noundef zeroext %25)
  br i1 %31, label %33, label %32

32:                                               ; preds = %28, %1
  br label %33

33:                                               ; preds = %28, %15, %32
  %.0 = phi i1 [ false, %32 ], [ true, %15 ], [ true, %28 ]
  ret i1 %.0
}